target datalayout = "e-m:e-p270:32:32-p271:32:32-p272:64:64-i64:64-i128:128-f80:128-n8:16:32:64-S128"
target triple = "x86_64-unknown-linux-gnu"

%"class.std::__cxx11::basic_string" = type { %"struct.std::__cxx11::basic_string<char>::_Alloc_hider", i64, %union.anon }
%"struct.std::__cxx11::basic_string<char>::_Alloc_hider" = type { ptr }
%union.anon = type { i64, [8 x i8] }
%"class.llvh::StringRef" = type { ptr, i64 }
%struct.__jmp_buf_tag = type { [8 x i64], i32, %struct.__sigset_t }
%struct.__sigset_t = type { [16 x i64] }
%struct.sigaction = type { %union.anon.209, %struct.__sigset_t, i32, ptr }
%union.anon.209 = type { ptr }
%"class.std::basic_istream" = type { ptr, i64, %"class.std::basic_ios" }
%"class.std::basic_ios" = type { %"class.std::ios_base", ptr, i8, i8, ptr, ptr, ptr, ptr }
%"class.std::ios_base" = type { ptr, i64, i64, i32, i32, i32, ptr, %"struct.std::ios_base::_Words", [8 x %"struct.std::ios_base::_Words"], i32, ptr, %"class.std::locale" }
%"struct.std::ios_base::_Words" = type { ptr, i64 }
%"class.std::locale" = type { ptr }
%"class.llvh::raw_ostream" = type <{ ptr, ptr, ptr, ptr, i32, [4 x i8] }>

@_ZL14readlineJmpBuf = internal global [1 x %struct.__jmp_buf_tag] zeroinitializer, align 16
@_ZL9oldAction = internal global %struct.sigaction zeroinitializer, align 8
@_ZSt3cin = external global %"class.std::basic_istream", align 8

; Function Attrs: mustprogress nounwind uwtable
define linkonce_odr hidden noundef nonnull align 8 dereferenceable(36) ptr @_ZN4llvh11raw_ostreamlsENS_9StringRefE(ptr noundef nonnull align 8 dereferenceable(36) %this, ptr %Str.coerce0, i64 %Str.coerce1) #4 comdat align 2 {
entry:
  %this.addr.i11 = alloca ptr, align 8
  %this.addr.i9 = alloca ptr, align 8
  %this.addr.i = alloca ptr, align 8
  %retval = alloca ptr, align 8
  %Str = alloca %"class.llvh::StringRef", align 8
  %this.addr = alloca ptr, align 8
  %Size = alloca i64, align 8
  %0 = getelementptr inbounds { ptr, i64 }, ptr %Str, i32 0, i32 0
  store ptr %Str.coerce0, ptr %0, align 8
  %1 = getelementptr inbounds { ptr, i64 }, ptr %Str, i32 0, i32 1
  store i64 %Str.coerce1, ptr %1, align 8
  store ptr %this, ptr %this.addr, align 8
  %this1 = load ptr, ptr %this.addr, align 8
  store ptr %Str, ptr %this.addr.i11, align 8
  %this1.i12 = load ptr, ptr %this.addr.i11, align 8
  %Length.i = getelementptr inbounds %"class.llvh::StringRef", ptr %this1.i12, i32 0, i32 1
  %2 = load i64, ptr %Length.i, align 8
  store i64 %2, ptr %Size, align 8
  %3 = load i64, ptr %Size, align 8
  %OutBufEnd = getelementptr inbounds %"class.llvh::raw_ostream", ptr %this1, i32 0, i32 2
  %4 = load ptr, ptr %OutBufEnd, align 8
  %OutBufCur = getelementptr inbounds %"class.llvh::raw_ostream", ptr %this1, i32 0, i32 3
  %5 = load ptr, ptr %OutBufCur, align 8
  %sub.ptr.lhs.cast = ptrtoint ptr %4 to i64
  %sub.ptr.rhs.cast = ptrtoint ptr %5 to i64
  %sub.ptr.sub = sub i64 %sub.ptr.lhs.cast, %sub.ptr.rhs.cast
  %cmp = icmp ugt i64 %3, %sub.ptr.sub
  br i1 %cmp, label %if.then, label %if.end

if.then:                                          ; preds = %entry
  store ptr %Str, ptr %this.addr.i9, align 8
  %this1.i10 = load ptr, ptr %this.addr.i9, align 8
  %6 = load ptr, ptr %this1.i10, align 8
  %7 = load i64, ptr %Size, align 8
  %call3 = call noundef nonnull align 8 dereferenceable(36) ptr @_ZN4llvh11raw_ostream5writeEPKcm(ptr noundef nonnull align 8 dereferenceable(36) %this1, ptr noundef %6, i64 noundef %7)
  store ptr %call3, ptr %retval, align 8
  br label %return

if.end:                                           ; preds = %entry
  %8 = load i64, ptr %Size, align 8
  %tobool = icmp ne i64 %8, 0
  br i1 %tobool, label %if.then4, label %if.end8

if.then4:                                         ; preds = %if.end
  %OutBufCur5 = getelementptr inbounds %"class.llvh::raw_ostream", ptr %this1, i32 0, i32 3
  %9 = load ptr, ptr %OutBufCur5, align 8
  store ptr %Str, ptr %this.addr.i, align 8
  %this1.i = load ptr, ptr %this.addr.i, align 8
  %10 = load ptr, ptr %this1.i, align 8
  %11 = load i64, ptr %Size, align 8
  call void @llvm.memcpy.p0.p0.i64(ptr align 1 %9, ptr align 1 %10, i64 %11, i1 false)
  %12 = load i64, ptr %Size, align 8
  %OutBufCur7 = getelementptr inbounds %"class.llvh::raw_ostream", ptr %this1, i32 0, i32 3
  %13 = load ptr, ptr %OutBufCur7, align 8
  %add.ptr = getelementptr inbounds i8, ptr %13, i64 %12
  store ptr %add.ptr, ptr %OutBufCur7, align 8
  br label %if.end8

if.end8:                                          ; preds = %if.then4, %if.end
  store ptr %this1, ptr %retval, align 8
  br label %return

return:                                           ; preds = %if.end8, %if.then
  %14 = load ptr, ptr %retval, align 8
  ret ptr %14
}

; Function Attrs: mustprogress nounwind uwtable
define linkonce_odr hidden noundef nonnull align 8 dereferenceable(36) ptr @_ZN4llvh11raw_ostreamlsEPKc(ptr noundef nonnull align 8 dereferenceable(36) %this, ptr noundef %Str) #4 comdat align 2 {
entry:
  %this.addr.i = alloca ptr, align 8
  %Str.addr.i = alloca ptr, align 8
  %this.addr = alloca ptr, align 8
  %Str.addr = alloca ptr, align 8
  %agg.tmp = alloca %"class.llvh::StringRef", align 8
  store ptr %this, ptr %this.addr, align 8
  store ptr %Str, ptr %Str.addr, align 8
  %this1 = load ptr, ptr %this.addr, align 8
  %0 = load ptr, ptr %Str.addr, align 8
  store ptr %agg.tmp, ptr %this.addr.i, align 8
  store ptr %0, ptr %Str.addr.i, align 8
  %this1.i = load ptr, ptr %this.addr.i, align 8
  %1 = load ptr, ptr %Str.addr.i, align 8
  store ptr %1, ptr %this1.i, align 8
  %Length.i = getelementptr inbounds %"class.llvh::StringRef", ptr %this1.i, i32 0, i32 1
  %2 = load ptr, ptr %Str.addr.i, align 8
  %tobool.i = icmp ne ptr %2, null
  br i1 %tobool.i, label %cond.true.i, label %cond.false.i

cond.true.i:                                      ; preds = %entry
  %3 = load ptr, ptr %Str.addr.i, align 8
  %call.i = call i64 @strlen(ptr noundef %3) #15
  br label %_ZN4llvh9StringRefC2EPKc.exit

cond.false.i:                                     ; preds = %entry
  br label %_ZN4llvh9StringRefC2EPKc.exit

_ZN4llvh9StringRefC2EPKc.exit:                    ; preds = %cond.false.i, %cond.true.i
  %cond.i = phi i64 [ %call.i, %cond.true.i ], [ 0, %cond.false.i ]
  store i64 %cond.i, ptr %Length.i, align 8
  %4 = getelementptr inbounds { ptr, i64 }, ptr %agg.tmp, i32 0, i32 0
  %5 = load ptr, ptr %4, align 8
  %6 = getelementptr inbounds { ptr, i64 }, ptr %agg.tmp, i32 0, i32 1
  %7 = load i64, ptr %6, align 8
  %call = call noundef nonnull align 8 dereferenceable(36) ptr @_ZN4llvh11raw_ostreamlsENS_9StringRefE(ptr noundef nonnull align 8 dereferenceable(36) %this1, ptr %5, i64 %7)
  ret ptr %call
}

; Function Attrs: mustprogress nounwind uwtable
define linkonce_odr hidden noundef i32 @_ZN6hermes8oscompat6isattyEi(i32 noundef %fd) #4 comdat {
entry:
  %fd.addr = alloca i32, align 4
  store i32 %fd, ptr %fd.addr, align 4
  %0 = load i32, ptr %fd.addr, align 4
  %call = call i32 @isatty(i32 noundef %0) #3
  ret i32 %call
}

; Function Attrs: mustprogress nounwind uwtable
define internal noundef i32 @_ZL13readInputLinePKcRNSt7__cxx1112basic_stringIcSt11char_traitsIcESaIcEEE(ptr noundef %prompt, ptr noundef nonnull align 8 dereferenceable(32) %line) #4 {
entry:
  %retval = alloca i32, align 4
  %prompt.addr = alloca ptr, align 8
  %line.addr = alloca ptr, align 8
  %action = alloca %struct.sigaction, align 8
  %rl = alloca ptr, align 8
  %current = alloca %"class.std::__cxx11::basic_string", align 8
  %success = alloca i8, align 1
  %cleanup.dest.slot = alloca i32, align 4
  store ptr %prompt, ptr %prompt.addr, align 8
  store ptr %line, ptr %line.addr, align 8
  %sa_mask = getelementptr inbounds %struct.sigaction, ptr %action, i32 0, i32 1
  %call = call i32 @sigemptyset(ptr noundef %sa_mask) #3
  %sa_flags = getelementptr inbounds %struct.sigaction, ptr %action, i32 0, i32 2
  store i32 0, ptr %sa_flags, align 8
  %call1 = call i32 @_setjmp(ptr noundef @_ZL14readlineJmpBuf) #17
  %cmp = icmp ne i32 %call1, 0
  br i1 %cmp, label %if.then, label %if.end

if.then:                                          ; preds = %entry
  store i32 2, ptr %retval, align 4
  br label %return

if.end:                                           ; preds = %entry
  %__sigaction_handler = getelementptr inbounds %struct.sigaction, ptr %action, i32 0, i32 0
  store ptr @_ZL12handleSignali, ptr %__sigaction_handler, align 8
  %call2 = call i32 @sigaction(i32 noundef 2, ptr noundef %action, ptr noundef @_ZL9oldAction) #3
  %call3 = call noundef i32 @_ZN6hermes8oscompat6isattyEi(i32 noundef 0)
  %tobool = icmp ne i32 %call3, 0
  br i1 %tobool, label %if.then4, label %if.end12

if.then4:                                         ; preds = %if.end
  %0 = load ptr, ptr %prompt.addr, align 8
  %call5 = call ptr @readline(ptr noundef %0)
  store ptr %call5, ptr %rl, align 8
  %1 = load ptr, ptr @_ZL9oldAction, align 8
  %__sigaction_handler6 = getelementptr inbounds %struct.sigaction, ptr %action, i32 0, i32 0
  store ptr %1, ptr %__sigaction_handler6, align 8
  %call7 = call i32 @sigaction(i32 noundef 2, ptr noundef %action, ptr noundef @_ZL9oldAction) #3
  %2 = load ptr, ptr %rl, align 8
  %tobool8 = icmp ne ptr %2, null
  br i1 %tobool8, label %if.end10, label %if.then9

if.then9:                                         ; preds = %if.then4
  store i32 1, ptr %retval, align 4
  br label %return

if.end10:                                         ; preds = %if.then4
  %3 = load ptr, ptr %line.addr, align 8
  %4 = load ptr, ptr %rl, align 8
  %call11 = call noundef nonnull align 8 dereferenceable(32) ptr @_ZNSt7__cxx1112basic_stringIcSt11char_traitsIcESaIcEE6appendEPKc(ptr noundef nonnull align 8 dereferenceable(32) %3, ptr noundef %4)
  %5 = load ptr, ptr %rl, align 8
  call void @add_history(ptr noundef %5)
  %6 = load ptr, ptr %rl, align 8
  call void @free(ptr noundef %6) #3
  store i32 0, ptr %retval, align 4
  br label %return

if.end12:                                         ; preds = %if.end
  %call13 = call noundef nonnull align 8 dereferenceable(36) ptr @_ZN4llvh4outsEv()
  %7 = load ptr, ptr %prompt.addr, align 8
  %call14 = call noundef nonnull align 8 dereferenceable(36) ptr @_ZN4llvh11raw_ostreamlsEPKc(ptr noundef nonnull align 8 dereferenceable(36) %call13, ptr noundef %7)
  call void @_ZNSt7__cxx1112basic_stringIcSt11char_traitsIcESaIcEEC1Ev(ptr noundef nonnull align 8 dereferenceable(32) %current) #3
  %call15 = call noundef nonnull align 8 dereferenceable(16) ptr @_ZSt7getlineIcSt11char_traitsIcESaIcEERSt13basic_istreamIT_T0_ES7_RNSt7__cxx1112basic_stringIS4_S5_T1_EE(ptr noundef nonnull align 8 dereferenceable(16) @_ZSt3cin, ptr noundef nonnull align 8 dereferenceable(32) %current)
  %vtable = load ptr, ptr %call15, align 8
  %vbase.offset.ptr = getelementptr i8, ptr %vtable, i64 -24
  %vbase.offset = load i64, ptr %vbase.offset.ptr, align 8
  %add.ptr = getelementptr inbounds i8, ptr %call15, i64 %vbase.offset
  %call16 = call noundef zeroext i1 @_ZNKSt9basic_iosIcSt11char_traitsIcEEntEv(ptr noundef nonnull align 8 dereferenceable(264) %add.ptr)
  %lnot = xor i1 %call16, true
  %frombool = zext i1 %lnot to i8
  store i8 %frombool, ptr %success, align 1
  %8 = load ptr, ptr @_ZL9oldAction, align 8
  %__sigaction_handler17 = getelementptr inbounds %struct.sigaction, ptr %action, i32 0, i32 0
  store ptr %8, ptr %__sigaction_handler17, align 8
  %call18 = call i32 @sigaction(i32 noundef 2, ptr noundef %action, ptr noundef @_ZL9oldAction) #3
  %9 = load i8, ptr %success, align 1
  %tobool19 = trunc i8 %9 to i1
  br i1 %tobool19, label %if.end21, label %if.then20

if.then20:                                        ; preds = %if.end12
  store i32 1, ptr %retval, align 4
  store i32 1, ptr %cleanup.dest.slot, align 4
  br label %cleanup

if.end21:                                         ; preds = %if.end12
  %10 = load ptr, ptr %line.addr, align 8
  %call22 = call noundef nonnull align 8 dereferenceable(32) ptr @_ZNSt7__cxx1112basic_stringIcSt11char_traitsIcESaIcEE6appendERKS4_(ptr noundef nonnull align 8 dereferenceable(32) %10, ptr noundef nonnull align 8 dereferenceable(32) %current)
  store i32 0, ptr %retval, align 4
  store i32 1, ptr %cleanup.dest.slot, align 4
  br label %cleanup

cleanup:                                          ; preds = %if.end21, %if.then20
  call void @_ZNSt7__cxx1112basic_stringIcSt11char_traitsIcESaIcEED1Ev(ptr noundef nonnull align 8 dereferenceable(32) %current) #3
  br label %return

return:                                           ; preds = %cleanup, %if.end10, %if.then9, %if.then
  %11 = load i32, ptr %retval, align 4
  ret i32 %11
}