; Function Attrs: mustprogress nounwind uwtable
define internal fastcc noundef i32 @_ZL13readInputLinePKcRNSt7__cxx1112basic_stringIcSt11char_traitsIcESaIcEEE(ptr noundef %prompt, ptr noundef nonnull align 8 dereferenceable(32) %line) unnamed_addr #3 {
entry:
  %action = alloca %struct.sigaction, align 8
  %current = alloca %"class.std::__cxx11::basic_string", align 8
  %sa_mask = getelementptr inbounds i8, ptr %action, i64 8
  %call = call i32 @sigemptyset(ptr noundef nonnull %sa_mask) #20
  %sa_flags = getelementptr inbounds i8, ptr %action, i64 136
  store i32 0, ptr %sa_flags, align 8
  %call1 = call i32 @_setjmp(ptr noundef nonnull @_ZL14readlineJmpBuf) #26
  %cmp.not = icmp eq i32 %call1, 0
  br i1 %cmp.not, label %if.end, label %return

if.end:                                           ; preds = %entry
  store ptr @_ZL12handleSignali, ptr %action, align 8
  %call2 = call i32 @sigaction(i32 noundef 2, ptr noundef nonnull %action, ptr noundef nonnull @_ZL9oldAction) #20
  %call.i = call noundef i32 @isatty(i32 noundef 0) #20
  %tobool.not = icmp eq i32 %call.i, 0
  br i1 %tobool.not, label %if.end12, label %if.then4

if.then4:                                         ; preds = %if.end
  %call5 = call ptr @readline(ptr noundef %prompt) #20
  %0 = load ptr, ptr @_ZL9oldAction, align 8
  store ptr %0, ptr %action, align 8
  %call7 = call i32 @sigaction(i32 noundef 2, ptr noundef nonnull %action, ptr noundef nonnull @_ZL9oldAction) #20
  %tobool8.not = icmp eq ptr %call5, null
  br i1 %tobool8.not, label %return, label %if.end10

if.end10:                                         ; preds = %if.then4
  %call11 = call noundef nonnull align 8 dereferenceable(32) ptr @_ZNSt7__cxx1112basic_stringIcSt11char_traitsIcESaIcEE6appendEPKc(ptr noundef nonnull align 8 dereferenceable(32) %line, ptr noundef nonnull %call5) #20
  call void @add_history(ptr noundef nonnull %call5) #20
  call void @free(ptr noundef nonnull %call5) #20
  br label %return

if.end12:                                         ; preds = %if.end
  %call13 = call noundef nonnull align 8 dereferenceable(36) ptr @_ZN4llvh4outsEv() #20
  %tobool.i.not.i = icmp eq ptr %prompt, null
  br i1 %tobool.i.not.i, label %_ZN4llvh11raw_ostreamlsEPKc.exit, label %cond.true.i.split.i

cond.true.i.split.i:                              ; preds = %if.end12
  %call.i.i = call i64 @strlen(ptr noundef nonnull dereferenceable(1) %prompt) #21
  %OutBufEnd.i5.i = getelementptr inbounds i8, ptr %call13, i64 16
  %1 = load ptr, ptr %OutBufEnd.i5.i, align 8
  %OutBufCur.i6.i = getelementptr inbounds i8, ptr %call13, i64 24
  %2 = load ptr, ptr %OutBufCur.i6.i, align 8
  %sub.ptr.lhs.cast.i7.i = ptrtoint ptr %1 to i64
  %sub.ptr.rhs.cast.i8.i = ptrtoint ptr %2 to i64
  %sub.ptr.sub.i9.i = sub i64 %sub.ptr.lhs.cast.i7.i, %sub.ptr.rhs.cast.i8.i
  %cmp.i.i = icmp ult i64 %sub.ptr.sub.i9.i, %call.i.i
  br i1 %cmp.i.i, label %if.then.i.i, label %if.end.i.i

if.then.i.i:                                      ; preds = %cond.true.i.split.i
  %call3.i.i = call noundef nonnull align 8 dereferenceable(36) ptr @_ZN4llvh11raw_ostream5writeEPKcm(ptr noundef nonnull align 8 dereferenceable(36) %call13, ptr noundef nonnull %prompt, i64 noundef %call.i.i) #20
  br label %_ZN4llvh11raw_ostreamlsEPKc.exit

if.end.i.i:                                       ; preds = %cond.true.i.split.i
  %tobool.not.i.i = icmp eq i64 %call.i.i, 0
  br i1 %tobool.not.i.i, label %_ZN4llvh11raw_ostreamlsEPKc.exit, label %if.then4.i.i

if.then4.i.i:                                     ; preds = %if.end.i.i
  call void @llvm.memcpy.p0.p0.i64(ptr align 1 %2, ptr nonnull align 1 %prompt, i64 %call.i.i, i1 false)
  %3 = load ptr, ptr %OutBufCur.i6.i, align 8
  %add.ptr.i.i = getelementptr inbounds i8, ptr %3, i64 %call.i.i
  store ptr %add.ptr.i.i, ptr %OutBufCur.i6.i, align 8
  br label %_ZN4llvh11raw_ostreamlsEPKc.exit

_ZN4llvh11raw_ostreamlsEPKc.exit:                 ; preds = %if.end12, %if.then.i.i, %if.end.i.i, %if.then4.i.i
  call void @_ZNSt7__cxx1112basic_stringIcSt11char_traitsIcESaIcEEC1Ev(ptr noundef nonnull align 8 dereferenceable(32) %current) #20
  %call15 = call noundef nonnull align 8 dereferenceable(16) ptr @_ZSt7getlineIcSt11char_traitsIcESaIcEERSt13basic_istreamIT_T0_ES7_RNSt7__cxx1112basic_stringIS4_S5_T1_EE(ptr noundef nonnull align 8 dereferenceable(16) @_ZSt3cin, ptr noundef nonnull align 8 dereferenceable(32) %current) #20
  %vtable = load ptr, ptr %call15, align 8
  %vbase.offset.ptr = getelementptr i8, ptr %vtable, i64 -24
  %vbase.offset = load i64, ptr %vbase.offset.ptr, align 8
  %add.ptr = getelementptr inbounds i8, ptr %call15, i64 %vbase.offset
  %call16 = call noundef zeroext i1 @_ZNKSt9basic_iosIcSt11char_traitsIcEEntEv(ptr noundef nonnull align 8 dereferenceable(264) %add.ptr) #20
  %4 = load ptr, ptr @_ZL9oldAction, align 8
  store ptr %4, ptr %action, align 8
  %call18 = call i32 @sigaction(i32 noundef 2, ptr noundef nonnull %action, ptr noundef nonnull @_ZL9oldAction) #20
  br i1 %call16, label %cleanup, label %if.end21

if.end21:                                         ; preds = %_ZN4llvh11raw_ostreamlsEPKc.exit
  %call22 = call noundef nonnull align 8 dereferenceable(32) ptr @_ZNSt7__cxx1112basic_stringIcSt11char_traitsIcESaIcEE6appendERKS4_(ptr noundef nonnull align 8 dereferenceable(32) %line, ptr noundef nonnull align 8 dereferenceable(32) %current) #20
  br label %cleanup

cleanup:                                          ; preds = %_ZN4llvh11raw_ostreamlsEPKc.exit, %if.end21
  %retval.0 = phi i32 [ 0, %if.end21 ], [ 1, %_ZN4llvh11raw_ostreamlsEPKc.exit ]
  call void @_ZNSt7__cxx1112basic_stringIcSt11char_traitsIcESaIcEED1Ev(ptr noundef nonnull align 8 dereferenceable(32) %current) #20
  br label %return

return:                                           ; preds = %if.then4, %entry, %cleanup, %if.end10
  %retval.1 = phi i32 [ 0, %if.end10 ], [ %retval.0, %cleanup ], [ 2, %entry ], [ 1, %if.then4 ]
  ret i32 %retval.1
}